; Function Attrs: nounwind uwtable
define internal ptr @dh_newdata(ptr noundef %0) #0 {
  %2 = tail call i32 @ossl_prov_is_running() #8
  %.not = icmp eq i32 %2, 0
  br i1 %.not, label %7, label %3

3:                                                ; preds = %1
  %4 = tail call ptr @ossl_prov_ctx_get0_libctx(ptr noundef %0) #8
  %5 = tail call ptr @ossl_dh_new_ex(ptr noundef %4) #8
  %.not6 = icmp eq ptr %5, null
  br i1 %.not6, label %7, label %6

6:                                                ; preds = %3
  tail call void @DH_clear_flags(ptr noundef nonnull %5, i32 noundef 61440) #8
  tail call void @DH_set_flags(ptr noundef nonnull %5, i32 noundef 0) #8
  br label %7

7:                                                ; preds = %3, %6, %1
  %.0 = phi ptr [ %5, %6 ], [ null, %3 ], [ null, %1 ]
  ret ptr %.0
}